Certificate:
    Data:
        Version: 3 (0x2)
        Serial Number: 0 (0x0)
        Signature Algorithm: sha1WithRSAEncryption
        Issuer: C=JP, ST=Tokyo, O=Contoso,Inc, OU=NashiBatake, CN=contosoCA
        Validity
            Not Before: May 10 10:09:01 2016 GMT
            Not After : May  8 10:09:01 2026 GMT
        Subject: C=JP, ST=Tokyo, O=Contoso,Inc, OU=NashiBatake, CN=contosoCA
        Subject Public Key Info:
            Public Key Algorithm: rsaEncryption
            RSA Public Key: (2048 bit)
                Modulus (2048 bit):
                    00:c4:2f:d0:c9:67:3c:e2:2b:df:2e:df:ba:48:b2:
                    02:33:bf:11:4f:98:67:9b:5a:9b:e6:0b:a6:a7:b6:
                    0d:22:7e:a2:19:25:8d:52:78:9b:bc:a5:93:7a:0e:
                    64:ce:a6:5d:17:b7:bd:e3:80:fd:f4:92:f4:6f:bd:
                    0d:cc:9f:f2:83:ad:55:25:5e:17:06:74:06:fd:69:
                    1b:f2:17:1c:04:62:5f:cd:5f:c6:0b:aa:4b:d8:8c:
                    2d:fc:6c:7d:e4:71:78:64:c6:b4:c0:7d:4d:bb:ef:
                    17:c5:2a:cf:7f:3b:ed:e7:de:02:1f:22:f3:69:e2:
                    ab:1e:ad:50:31:24:41:e0:46:26:2f:d6:3d:12:d2:
                    6f:f6:84:14:70:c4:e9:aa:92:9b:b0:7d:a0:cf:51:
                    fc:70:1c:d2:fc:64:08:00:3f:a8:94:6c:b9:23:57:
                    c5:f6:69:a0:7f:8a:69:39:c2:26:44:8b:e1:da:37:
                    9a:66:4c:3c:2f:84:51:29:08:13:da:87:71:3d:c5:
                    7a:09:e5:79:29:09:0e:ef:21:28:c6:75:95:a5:25:
                    10:b5:f0:62:5b:c5:90:1a:c3:e7:6b:85:2d:a0:69:
                    16:9e:a8:ac:5e:f0:6c:d1:74:76:5f:f0:21:f5:2d:
                    0a:a0:5d:bf:c0:6f:7a:38:41:7b:63:c0:22:da:02:
                    67:5d
                Exponent: 65537 (0x10001)
        X509v3 extensions:
            X509v3 Subject Key Identifier: 
                F2:83:95:AB:AB:46:40:E4:A4:BE:2C:6F:BC:7E:A0:C3:29:CB:DE:79
            X509v3 Authority Key Identifier: 
                keyid:F2:83:95:AB:AB:46:40:E4:A4:BE:2C:6F:BC:7E:A0:C3:29:CB:DE:79

            X509v3 Basic Constraints: 
                CA:TRUE
    Signature Algorithm: sha1WithRSAEncryption
        05:d7:07:59:3a:bb:80:6f:0f:4e:95:a9:31:9d:2c:7c:3a:19:
        c7:5a:c1:f1:4c:8e:8b:a3:9a:12:bc:d8:81:23:a1:a3:4b:a3:
        58:ee:23:ce:0c:84:1d:2d:7d:c6:b7:68:b7:f3:ce:aa:f6:9f:
        64:cc:bb:76:cd:47:de:46:39:84:2b:e0:8e:18:6f:ab:47:21:
        28:5a:f8:c9:7e:ba:53:76:14:7f:08:5f:ca:02:ca:6f:c4:6f:
        a1:2c:d8:e6:b9:62:db:76:de:c6:95:8a:94:71:c2:dd:30:81:
        c3:5d:12:01:fc:6b:7e:9c:6d:31:9a:d6:5f:d1:07:c9:cf:b2:
        1b:8c:d7:29:a3:d6:71:01:6a:fa:a0:14:97:bc:58:f9:11:41:
        9f:92:d7:59:d1:05:1e:92:3b:c9:fd:69:26:82:5e:d8:1a:be:
        9e:14:fd:c3:21:09:a8:cc:97:2e:a7:79:e3:b4:c4:ff:f3:ec:
        ea:b1:d7:57:30:e6:a2:bc:1c:0e:3b:23:83:2e:16:60:de:39:
        6a:c7:17:99:77:d9:88:70:b1:c9:eb:7d:78:3d:27:39:18:f0:
        b4:45:45:c7:46:53:2f:32:4e:62:0b:99:78:f9:7e:83:63:dc:
        fd:0b:fc:10:82:96:79:ba:02:92:08:70:7b:f2:c4:30:25:65:
        79:f0:b4:90
-----BEGIN CERTIFICATE-----
MIIDhTCCAm2gAwIBAgIBADANBgkqhkiG9w0BAQUFADBdMQswCQYDVQQGEwJKUDEO
MAwGA1UECAwFVG9reW8xFDASBgNVBAoMC0NvbnRvc28sSW5jMRQwEgYDVQQLDAtO
YXNoaUJhdGFrZTESMBAGA1UEAwwJY29udG9zb0NBMB4XDTE2MDUxMDEwMDkwMVoX
DTI2MDUwODEwMDkwMVowXTELMAkGA1UEBhMCSlAxDjAMBgNVBAgMBVRva3lvMRQw
EgYDVQQKDAtDb250b3NvLEluYzEUMBIGA1UECwwLTmFzaGlCYXRha2UxEjAQBgNV
BAMMCWNvbnRvc29DQTCCASIwDQYJKoZIhvcNAQEBBQADggEPADCCAQoCggEBAMQv
0MlnPOIr3y7fukiyAjO/EU+YZ5tam+YLpqe2DSJ+ohkljVJ4m7ylk3oOZM6mXRe3
veOA/fSS9G+9Dcyf8oOtVSVeFwZ0Bv1pG/IXHARiX81fxguqS9iMLfxsfeRxeGTG
tMB9TbvvF8Uqz3877efeAh8i82niqx6tUDEkQeBGJi/WPRLSb/aEFHDE6aqSm7B9
oM9R/HAc0vxkCAA/qJRsuSNXxfZpoH+KaTnCJkSL4do3mmZMPC+EUSkIE9qHcT3F
egnleSkJDu8hKMZ1laUlELXwYlvFkBrD52uFLaBpFp6orF7wbNF0dl/wIfUtCqBd
v8BvejhBe2PAItoCZ10CAwEAAaNQME4wHQYDVR0OBBYEFPKDlaurRkDkpL4sb7x+
oMMpy955MB8GA1UdIwQYMBaAFPKDlaurRkDkpL4sb7x+oMMpy955MAwGA1UdEwQF
MAMBAf8wDQYJKoZIhvcNAQEFBQADggEBAAXXB1k6u4BvD06VqTGdLHw6GcdawfFM
joujmhK82IEjoaNLo1juI84MhB0tfca3aLfzzqr2n2TMu3bNR95GOYQr4I4Yb6tH
ISha+Ml+ulN2FH8IX8oCym/Eb6Es2Oa5Ytt23saVipRxwt0wgcNdEgH8a36cbTGa
1l/RB8nPshuM1ymj1nEBavqgFJe8WPkRQZ+S11nRBR6SO8n9aSaCXtgavp4U/cMh
CajMly6neeO0xP/z7Oqx11cw5qK8HA47I4MuFmDeOWrHF5l32YhwscnrfXg9JzkY
8LRFRcdGUy8yTmILmXj5foNj3P0L/BCClnm6ApIIcHvyxDAlZXnwtJA=
-----END CERTIFICATE-----
